target datalayout = "e-m:e-p270:32:32-p271:32:32-p272:64:64-i64:64-i128:128-f80:128-n8:16:32:64-S128"
target triple = "x86_64-unknown-linux-gnu"

%"class.spacer::model_node" = type <{ %class.ref, ptr, %class.ptr_vector, ptr, ptr, i32, i32, i8, [7 x i8] }>
%class.ref = type { ptr }
%class.ptr_vector = type { %class.vector }
%class.vector = type { ptr }
%"class.spacer::model_search" = type { i8, ptr, ptr, %class.vector.7 }
%class.vector.7 = type { ptr }

; Function Attrs: mustprogress nounwind uwtable
define hidden void @_ZN6spacer10model_node6detachERPS0_(ptr noundef nonnull align 8 dereferenceable(49) %this, ptr noundef nonnull align 8 dereferenceable(8) %qhead) #5 align 2 {
entry:
  %this.addr = alloca ptr, align 8
  %qhead.addr = alloca ptr, align 8
  store ptr %this, ptr %this.addr, align 8
  store ptr %qhead, ptr %qhead.addr, align 8
  %this1 = load ptr, ptr %this.addr, align 8
  %m_next = getelementptr inbounds %"class.spacer::model_node", ptr %this1, i32 0, i32 3
  %0 = load ptr, ptr %m_next, align 8
  %cmp = icmp eq ptr %this1, %0
  br i1 %cmp, label %if.then, label %if.else

if.then:                                          ; preds = %entry
  %1 = load ptr, ptr %qhead.addr, align 8
  store ptr null, ptr %1, align 8
  br label %if.end10

if.else:                                          ; preds = %entry
  %m_prev = getelementptr inbounds %"class.spacer::model_node", ptr %this1, i32 0, i32 4
  %2 = load ptr, ptr %m_prev, align 8
  %m_next2 = getelementptr inbounds %"class.spacer::model_node", ptr %this1, i32 0, i32 3
  %3 = load ptr, ptr %m_next2, align 8
  %m_prev3 = getelementptr inbounds %"class.spacer::model_node", ptr %3, i32 0, i32 4
  store ptr %2, ptr %m_prev3, align 8
  %m_next4 = getelementptr inbounds %"class.spacer::model_node", ptr %this1, i32 0, i32 3
  %4 = load ptr, ptr %m_next4, align 8
  %m_prev5 = getelementptr inbounds %"class.spacer::model_node", ptr %this1, i32 0, i32 4
  %5 = load ptr, ptr %m_prev5, align 8
  %m_next6 = getelementptr inbounds %"class.spacer::model_node", ptr %5, i32 0, i32 3
  store ptr %4, ptr %m_next6, align 8
  %6 = load ptr, ptr %qhead.addr, align 8
  %7 = load ptr, ptr %6, align 8
  %cmp7 = icmp eq ptr %this1, %7
  br i1 %cmp7, label %if.then8, label %if.end

if.then8:                                         ; preds = %if.else
  %m_next9 = getelementptr inbounds %"class.spacer::model_node", ptr %this1, i32 0, i32 3
  %8 = load ptr, ptr %m_next9, align 8
  %9 = load ptr, ptr %qhead.addr, align 8
  store ptr %8, ptr %9, align 8
  br label %if.end

if.end:                                           ; preds = %if.then8, %if.else
  br label %if.end10

if.end10:                                         ; preds = %if.end, %if.then
  %m_prev11 = getelementptr inbounds %"class.spacer::model_node", ptr %this1, i32 0, i32 4
  store ptr null, ptr %m_prev11, align 8
  %m_next12 = getelementptr inbounds %"class.spacer::model_node", ptr %this1, i32 0, i32 3
  store ptr null, ptr %m_next12, align 8
  ret void
}

; Function Attrs: mustprogress nounwind uwtable
define hidden noundef ptr @_ZN6spacer12model_search9pop_frontEv(ptr noundef nonnull align 8 dereferenceable(32) %this) #5 align 2 {
entry:
  %this.addr = alloca ptr, align 8
  %res = alloca ptr, align 8
  store ptr %this, ptr %this.addr, align 8
  %this1 = load ptr, ptr %this.addr, align 8
  %m_qhead = getelementptr inbounds %"class.spacer::model_search", ptr %this1, i32 0, i32 2
  %0 = load ptr, ptr %m_qhead, align 8
  store ptr %0, ptr %res, align 8
  %1 = load ptr, ptr %res, align 8
  %tobool = icmp ne ptr %1, null
  br i1 %tobool, label %if.then, label %if.end

if.then:                                          ; preds = %entry
  %2 = load ptr, ptr %res, align 8
  %m_qhead2 = getelementptr inbounds %"class.spacer::model_search", ptr %this1, i32 0, i32 2
  call void @_ZN6spacer10model_node6detachERPS0_(ptr noundef nonnull align 8 dereferenceable(49) %2, ptr noundef nonnull align 8 dereferenceable(8) %m_qhead2)
  br label %if.end

if.end:                                           ; preds = %if.then, %entry
  %3 = load ptr, ptr %res, align 8
  ret ptr %3
}