; Function Attrs: mustprogress nofree norecurse nosync nounwind willreturn memory(readwrite, inaccessiblemem: none) uwtable
define hidden noundef ptr @_ZN6spacer12model_search9pop_frontEv(ptr nocapture noundef nonnull align 8 dereferenceable(32) %this) local_unnamed_addr #8 align 2 {
entry:
  %m_qhead = getelementptr inbounds i8, ptr %this, i64 16
  %0 = load ptr, ptr %m_qhead, align 8
  %tobool.not = icmp eq ptr %0, null
  br i1 %tobool.not, label %if.end, label %if.then

if.then:                                          ; preds = %entry
  %m_next.i = getelementptr inbounds i8, ptr %0, i64 24
  %1 = load ptr, ptr %m_next.i, align 8
  %cmp.i = icmp eq ptr %1, %0
  br i1 %cmp.i, label %if.end10.sink.split.i, label %if.else.i

if.else.i:                                        ; preds = %if.then
  %m_prev.i = getelementptr inbounds i8, ptr %0, i64 32
  %2 = load ptr, ptr %m_prev.i, align 8
  %m_prev3.i = getelementptr inbounds i8, ptr %1, i64 32
  store ptr %2, ptr %m_prev3.i, align 8
  %3 = load ptr, ptr %m_next.i, align 8
  %m_next6.i = getelementptr inbounds i8, ptr %2, i64 24
  store ptr %3, ptr %m_next6.i, align 8
  %4 = load ptr, ptr %m_qhead, align 8
  %cmp7.i = icmp eq ptr %4, %0
  br i1 %cmp7.i, label %if.end10.sink.split.i, label %_ZN6spacer10model_node6detachERPS0_.exit

if.end10.sink.split.i:                            ; preds = %if.else.i, %if.then
  %.sink.i = phi ptr [ null, %if.then ], [ %3, %if.else.i ]
  store ptr %.sink.i, ptr %m_qhead, align 8
  br label %_ZN6spacer10model_node6detachERPS0_.exit

_ZN6spacer10model_node6detachERPS0_.exit:         ; preds = %if.else.i, %if.end10.sink.split.i
  tail call void @llvm.memset.p0.i64(ptr noundef nonnull align 8 dereferenceable(16) %m_next.i, i8 0, i64 16, i1 false)
  br label %if.end

if.end:                                           ; preds = %_ZN6spacer10model_node6detachERPS0_.exit, %entry
  ret ptr %0
}